; Function Attrs: mustprogress uwtable
define hidden void @_ZN4cvc58internal6theory11quantifiers19QueryGeneratorBasicC2ERNS0_3EnvE(ptr noundef nonnull align 8 dereferenceable(128) %this, ptr noundef nonnull align 8 dereferenceable(576) %env) unnamed_addr #3 align 2 personality ptr @__gxx_personality_v0 {
entry:
  tail call void @_ZN4cvc58internal6EnvObjC2ERNS0_3EnvE(ptr noundef nonnull align 8 dereferenceable(16) %this, ptr noundef nonnull align 8 dereferenceable(576) %env)
  %d_vars.i.i = getelementptr inbounds i8, ptr %this, i64 16
  %0 = getelementptr inbounds i8, ptr %this, i64 80
  store i32 0, ptr %0, align 8
  %_M_parent.i.i.i.i.i.i.i = getelementptr inbounds i8, ptr %this, i64 88
  store ptr null, ptr %_M_parent.i.i.i.i.i.i.i, align 8
  %_M_left.i.i.i.i.i.i.i = getelementptr inbounds i8, ptr %this, i64 96
  tail call void @llvm.memset.p0.i64(ptr noundef nonnull align 8 dereferenceable(56) %d_vars.i.i, i8 0, i64 56, i1 false)
  store ptr %0, ptr %_M_left.i.i.i.i.i.i.i, align 8
  %_M_right.i.i.i.i.i.i.i = getelementptr inbounds i8, ptr %this, i64 104
  store ptr %0, ptr %_M_right.i.i.i.i.i.i.i, align 8
  %_M_node_count.i.i.i.i.i.i.i = getelementptr inbounds i8, ptr %this, i64 112
  store i64 0, ptr %_M_node_count.i.i.i.i.i.i.i, align 8
  %d_queryCount.i = getelementptr inbounds i8, ptr %this, i64 120
  store i64 0, ptr %d_queryCount.i, align 8
  store ptr getelementptr inbounds ({ [6 x ptr] }, ptr @_ZTVN4cvc58internal6theory11quantifiers19QueryGeneratorBasicE, i64 0, i32 0, i64 2), ptr %this, align 8
  ret void
}